; Function Attrs: mustprogress nofree norecurse nosync nounwind willreturn memory(none) uwtable
define dso_local zeroext i1 @DoLockModesConflict(i32 noundef %0, i32 noundef %1) local_unnamed_addr #4 {
  %3 = sext i32 %0 to i64
  %4 = getelementptr inbounds i32, ptr @LockConflicts, i64 %3
  %5 = load i32, ptr %4, align 4
  %6 = shl nuw i32 1, %1
  %7 = and i32 %5, %6
  %.not = icmp ne i32 %7, 0
  ret i1 %.not
}